; Function Attrs: nofree nounwind uwtable
define hidden noundef zeroext i1 @file_exists(ptr noundef readonly captures(none) %0) local_unnamed_addr #5 {
  %2 = tail call noalias ptr @fopen(ptr noundef %0, ptr noundef nonnull @.str.9)
  %.not = icmp ne ptr %2, null
  br i1 %.not, label %3, label %5

3:                                                ; preds = %1
  %4 = tail call i32 @fclose(ptr noundef nonnull %2)
  br label %5

5:                                                ; preds = %1, %3
  ret i1 %.not
}